(lp0
(S'cppflags'
p1
ccopy_reg
_reconstructor
p2
(cino.utils
SpaceList
p3
c__builtin__
list
p4
(lp5
S'-mmcu=atmega328p'
p6
aS'-DF_CPU=16000000L'
p7
aS'-DARDUINO=101'
p8
aS'-I/usr/share/arduino/hardware/arduino/cores/arduino'
p9
aS'-ffunction-sections'
p10
aS'-fdata-sections'
p11
aS'-g'
p12
aS'-Os'
p13
aS'-w'
p14
aS'-I/usr/share/arduino/hardware/arduino/variants/standard'
p15
aS'-I/usr/share/arduino/libraries/Servo'
p16
aS'-I/usr/share/arduino/hardware/arduino/cores/arduino'
p17
atp18
Rp19
tp20
a(S'cxx'
p21
S'/usr/bin/avr-g++'
p22
tp23
a(S'build_dir'
p24
S'.build/atmega328'
p25
tp26
a(S'avrdude'
p27
S'/usr/share/arduino/hardware/tools/avrdude'
p28
tp29
a(S'ar'
p30
S'/usr/bin/avr-ar'
p31
tp32
a(S'names'
p33
(dp34
S'cpp'
p35
S'%s.cpp'
p36
sS'obj'
p37
S'%s.o'
p38
sS'deps'
p39
S'%s.d'
p40
sS'lib'
p41
S'lib%s.a'
p42
stp43
a(S'ldflags'
p44
g2
(g3
g4
(lp45
g6
aS'-Wl,-Os'
p46
aS'-Wl,--gc-sections'
p47
atp48
Rp49
tp50
a(S'arduino_lib_version'
p51
g2
(cino.environment
Version
p52
c__builtin__
tuple
p53
(I1
I0
I1
tp54
tp55
Rp56
tp57
a(S'objcopy'
p58
S'/usr/bin/avr-objcopy'
p59
tp60
a(S'board_models'
p61
cino.environment
BoardModels
p62
((lp63
(lp64
S'uno'
p65
a(dp66
S'bootloader'
p67
(dp68
S'extended_fuses'
p69
S'0x05'
p70
sS'high_fuses'
p71
S'0xde'
p72
sS'low_fuses'
p73
S'0xff'
p74
sS'lock_bits'
p75
S'0x0F'
p76
sS'file'
p77
S'optiboot_atmega328.hex'
p78
sS'path'
p79
S'optiboot'
p80
sS'unlock_bits'
p81
S'0x3F'
p82
ssS'upload'
p83
(dp84
S'speed'
p85
S'115200'
p86
sS'maximum_size'
p87
S'32256'
p88
sS'protocol'
p89
S'arduino'
p90
ssS'build'
p91
(dp92
S'core'
p93
S'arduino'
p94
sS'mcu'
p95
S'atmega328p'
p96
sS'f_cpu'
p97
S'16000000L'
p98
sS'variant'
p99
S'standard'
p100
ssS'name'
p101
S'Arduino Uno'
p102
sS'_coredir'
p103
S'/usr/share/arduino/hardware/arduino'
p104
saa(lp105
S'atmega328'
p106
a(dp107
S'bootloader'
p108
(dp109
S'extended_fuses'
p110
S'0x05'
p111
sS'high_fuses'
p112
S'0xDA'
p113
sS'low_fuses'
p114
S'0xFF'
p115
sS'lock_bits'
p116
S'0x0F'
p117
sS'file'
p118
S'ATmegaBOOT_168_atmega328.hex'
p119
sS'path'
p120
S'atmega'
p121
sS'unlock_bits'
p122
S'0x3F'
p123
ssS'upload'
p124
(dp125
S'speed'
p126
S'57600'
p127
sS'maximum_size'
p128
S'30720'
p129
sS'protocol'
p130
S'arduino'
p131
ssS'build'
p132
(dp133
S'core'
p134
S'arduino'
p135
sS'mcu'
p136
S'atmega328p'
p137
sS'f_cpu'
p138
S'16000000L'
p139
sS'variant'
p140
S'standard'
p141
ssS'name'
p142
S'Arduino Duemilanove w/ ATmega328'
p143
sg103
S'/usr/share/arduino/hardware/arduino'
p144
saa(lp145
S'diecimila'
p146
a(dp147
S'bootloader'
p148
(dp149
S'extended_fuses'
p150
S'0x00'
p151
sS'high_fuses'
p152
S'0xdd'
p153
sS'low_fuses'
p154
S'0xff'
p155
sS'lock_bits'
p156
S'0x0F'
p157
sS'file'
p158
S'ATmegaBOOT_168_diecimila.hex'
p159
sS'path'
p160
S'atmega'
p161
sS'unlock_bits'
p162
S'0x3F'
p163
ssS'upload'
p164
(dp165
S'speed'
p166
S'19200'
p167
sS'maximum_size'
p168
S'14336'
p169
sS'protocol'
p170
S'arduino'
p171
ssS'build'
p172
(dp173
S'core'
p174
S'arduino'
p175
sS'mcu'
p176
S'atmega168'
p177
sS'f_cpu'
p178
S'16000000L'
p179
sS'variant'
p180
S'standard'
p181
ssS'name'
p182
S'Arduino Diecimila or Duemilanove w/ ATmega168'
p183
sg103
S'/usr/share/arduino/hardware/arduino'
p184
saa(lp185
S'nano328'
p186
a(dp187
S'bootloader'
p188
(dp189
S'extended_fuses'
p190
S'0x05'
p191
sS'high_fuses'
p192
S'0xDA'
p193
sS'low_fuses'
p194
S'0xFF'
p195
sS'lock_bits'
p196
S'0x0F'
p197
sS'file'
p198
S'ATmegaBOOT_168_atmega328.hex'
p199
sS'path'
p200
S'atmega'
p201
sS'unlock_bits'
p202
S'0x3F'
p203
ssS'upload'
p204
(dp205
S'speed'
p206
S'57600'
p207
sS'maximum_size'
p208
S'30720'
p209
sS'protocol'
p210
S'arduino'
p211
ssS'build'
p212
(dp213
S'core'
p214
S'arduino'
p215
sS'mcu'
p216
S'atmega328p'
p217
sS'f_cpu'
p218
S'16000000L'
p219
sS'variant'
p220
S'eightanaloginputs'
p221
ssS'name'
p222
S'Arduino Nano w/ ATmega328'
p223
sg103
S'/usr/share/arduino/hardware/arduino'
p224
saa(lp225
S'nano'
p226
a(dp227
S'bootloader'
p228
(dp229
S'extended_fuses'
p230
S'0x00'
p231
sS'high_fuses'
p232
S'0xdd'
p233
sS'low_fuses'
p234
S'0xff'
p235
sS'lock_bits'
p236
S'0x0F'
p237
sS'file'
p238
S'ATmegaBOOT_168_diecimila.hex'
p239
sS'path'
p240
S'atmega'
p241
sS'unlock_bits'
p242
S'0x3F'
p243
ssS'upload'
p244
(dp245
S'speed'
p246
S'19200'
p247
sS'maximum_size'
p248
S'14336'
p249
sS'protocol'
p250
S'arduino'
p251
ssS'build'
p252
(dp253
S'core'
p254
S'arduino'
p255
sS'mcu'
p256
S'atmega168'
p257
sS'f_cpu'
p258
S'16000000L'
p259
sS'variant'
p260
S'eightanaloginputs'
p261
ssS'name'
p262
S'Arduino Nano w/ ATmega168'
p263
sg103
S'/usr/share/arduino/hardware/arduino'
p264
saa(lp265
S'mega2560'
p266
a(dp267
S'bootloader'
p268
(dp269
S'extended_fuses'
p270
S'0xFD'
p271
sS'high_fuses'
p272
S'0xD8'
p273
sS'low_fuses'
p274
S'0xFF'
p275
sS'lock_bits'
p276
S'0x0F'
p277
sS'file'
p278
S'stk500boot_v2_mega2560.hex'
p279
sS'path'
p280
S'stk500v2'
p281
sS'unlock_bits'
p282
S'0x3F'
p283
ssS'upload'
p284
(dp285
S'speed'
p286
S'115200'
p287
sS'maximum_size'
p288
S'258048'
p289
sS'protocol'
p290
S'stk500v2'
p291
ssS'build'
p292
(dp293
S'core'
p294
S'arduino'
p295
sS'mcu'
p296
S'atmega2560'
p297
sS'f_cpu'
p298
S'16000000L'
p299
sS'variant'
p300
S'mega'
p301
ssS'name'
p302
S'Arduino Mega 2560 or Mega ADK'
p303
sg103
S'/usr/share/arduino/hardware/arduino'
p304
saa(lp305
S'mega'
p306
a(dp307
S'bootloader'
p308
(dp309
S'extended_fuses'
p310
S'0xF5'
p311
sS'high_fuses'
p312
S'0xDA'
p313
sS'low_fuses'
p314
S'0xFF'
p315
sS'lock_bits'
p316
S'0x0F'
p317
sS'file'
p318
S'ATmegaBOOT_168_atmega1280.hex'
p319
sS'path'
p320
S'atmega'
p321
sS'unlock_bits'
p322
S'0x3F'
p323
ssS'upload'
p324
(dp325
S'speed'
p326
S'57600'
p327
sS'maximum_size'
p328
S'126976'
p329
sS'protocol'
p330
S'arduino'
p331
ssS'build'
p332
(dp333
S'core'
p334
S'arduino'
p335
sS'mcu'
p336
S'atmega1280'
p337
sS'f_cpu'
p338
S'16000000L'
p339
sS'variant'
p340
S'mega'
p341
ssS'name'
p342
S'Arduino Mega (ATmega1280)'
p343
sg103
S'/usr/share/arduino/hardware/arduino'
p344
saa(lp345
S'leonardo'
p346
a(dp347
S'bootloader'
p348
(dp349
S'extended_fuses'
p350
S'0xcb'
p351
sS'high_fuses'
p352
S'0xd8'
p353
sS'low_fuses'
p354
S'0xff'
p355
sS'lock_bits'
p356
S'0x2F'
p357
sS'file'
p358
S'Caterina-Leonardo.hex'
p359
sS'path'
p360
S'caterina'
p361
sS'unlock_bits'
p362
S'0x3F'
p363
ssS'upload'
p364
(dp365
S'speed'
p366
S'57600'
p367
sS'maximum_size'
p368
S'28672'
p369
sS'protocol'
p370
S'avr109'
p371
sS'disable_flushing'
p372
S'true'
p373
ssS'build'
p374
(dp375
S'core'
p376
S'arduino'
p377
sS'f_cpu'
p378
S'16000000L'
p379
sS'vid'
p380
S'0x2341'
p381
sS'pid'
p382
S'0x8036'
p383
sS'variant'
p384
S'leonardo'
p385
sS'mcu'
p386
S'atmega32u4'
p387
ssS'name'
p388
S'Arduino Leonardo'
p389
sg103
S'/usr/share/arduino/hardware/arduino'
p390
saa(lp391
S'mini328'
p392
a(dp393
S'bootloader'
p394
(dp395
S'extended_fuses'
p396
S'0x05'
p397
sS'high_fuses'
p398
S'0xd8'
p399
sS'low_fuses'
p400
S'0xff'
p401
sS'lock_bits'
p402
S'0x0F'
p403
sS'file'
p404
S'optiboot_atmega328-Mini.hex'
p405
sS'path'
p406
S'optiboot'
p407
sS'unlock_bits'
p408
S'0x3F'
p409
ssS'upload'
p410
(dp411
S'speed'
p412
S'115200'
p413
sS'maximum_size'
p414
S'28672'
p415
sS'protocol'
p416
S'arduino'
p417
ssS'build'
p418
(dp419
S'core'
p420
S'arduino'
p421
sS'mcu'
p422
S'atmega328p'
p423
sS'f_cpu'
p424
S'16000000L'
p425
sS'variant'
p426
S'eightanaloginputs'
p427
ssS'name'
p428
S'Arduino Mini w/ ATmega328'
p429
sg103
S'/usr/share/arduino/hardware/arduino'
p430
saa(lp431
S'mini'
p432
a(dp433
S'bootloader'
p434
(dp435
S'extended_fuses'
p436
S'0x00'
p437
sS'high_fuses'
p438
S'0xdd'
p439
sS'low_fuses'
p440
S'0xff'
p441
sS'lock_bits'
p442
S'0x0F'
p443
sS'file'
p444
S'ATmegaBOOT_168_ng.hex'
p445
sS'path'
p446
S'atmega'
p447
sS'unlock_bits'
p448
S'0x3F'
p449
ssS'upload'
p450
(dp451
S'speed'
p452
S'19200'
p453
sS'maximum_size'
p454
S'14336'
p455
sS'protocol'
p456
S'arduino'
p457
ssS'build'
p458
(dp459
S'core'
p460
S'arduino'
p461
sS'mcu'
p462
S'atmega168'
p463
sS'f_cpu'
p464
S'16000000L'
p465
sS'variant'
p466
S'eightanaloginputs'
p467
ssS'name'
p468
S'Arduino Mini w/ ATmega168'
p469
sg103
S'/usr/share/arduino/hardware/arduino'
p470
saa(lp471
S'ethernet'
p472
a(dp473
S'bootloader'
p474
(dp475
S'extended_fuses'
p476
S'0x05'
p477
sS'high_fuses'
p478
S'0xde'
p479
sS'low_fuses'
p480
S'0xff'
p481
sS'lock_bits'
p482
S'0x0F'
p483
sS'file'
p484
S'optiboot_atmega328.hex'
p485
sS'path'
p486
S'optiboot'
p487
sS'unlock_bits'
p488
S'0x3F'
p489
ssS'upload'
p490
(dp491
S'speed'
p492
S'115200'
p493
sS'maximum_size'
p494
S'32256'
p495
sS'protocol'
p496
S'arduino'
p497
ssS'build'
p498
(dp499
S'f_cpu'
p500
S'16000000L'
p501
sS'mcu'
p502
S'atmega328p'
p503
sS'variant'
p504
S'standard'
p505
sS'core'
p506
S'arduino'
p507
ssS'name'
p508
S'Arduino Ethernet'
p509
sg103
S'/usr/share/arduino/hardware/arduino'
p510
saa(lp511
S'fio'
p512
a(dp513
S'bootloader'
p514
(dp515
S'extended_fuses'
p516
S'0x05'
p517
sS'high_fuses'
p518
S'0xDA'
p519
sS'low_fuses'
p520
S'0xFF'
p521
sS'lock_bits'
p522
S'0x0F'
p523
sS'file'
p524
S'ATmegaBOOT_168_atmega328_pro_8MHz.hex'
p525
sS'path'
p526
S'arduino:atmega'
p527
sS'unlock_bits'
p528
S'0x3F'
p529
ssS'upload'
p530
(dp531
S'speed'
p532
S'57600'
p533
sS'maximum_size'
p534
S'30720'
p535
sS'protocol'
p536
S'arduino'
p537
ssS'build'
p538
(dp539
S'core'
p540
S'arduino'
p541
sS'mcu'
p542
S'atmega328p'
p543
sS'f_cpu'
p544
S'8000000L'
p545
sS'variant'
p546
S'eightanaloginputs'
p547
ssS'name'
p548
S'Arduino Fio'
p549
sg103
S'/usr/share/arduino/hardware/arduino'
p550
saa(lp551
S'bt328'
p552
a(dp553
S'bootloader'
p554
(dp555
S'extended_fuses'
p556
S'0x05'
p557
sS'high_fuses'
p558
S'0xd8'
p559
sS'low_fuses'
p560
S'0xff'
p561
sS'lock_bits'
p562
S'0x0F'
p563
sS'file'
p564
S'ATmegaBOOT_168_atmega328_bt.hex'
p565
sS'path'
p566
S'bt'
p567
sS'unlock_bits'
p568
S'0x3F'
p569
ssS'upload'
p570
(dp571
S'speed'
p572
S'19200'
p573
sS'maximum_size'
p574
S'28672'
p575
sS'protocol'
p576
S'arduino'
p577
sS'disable_flushing'
p578
S'true'
p579
ssS'build'
p580
(dp581
S'core'
p582
S'arduino'
p583
sS'mcu'
p584
S'atmega328p'
p585
sS'f_cpu'
p586
S'16000000L'
p587
sS'variant'
p588
S'eightanaloginputs'
p589
ssS'name'
p590
S'Arduino BT w/ ATmega328'
p591
sg103
S'/usr/share/arduino/hardware/arduino'
p592
saa(lp593
S'bt'
p594
a(dp595
S'bootloader'
p596
(dp597
S'extended_fuses'
p598
S'0x00'
p599
sS'high_fuses'
p600
S'0xdd'
p601
sS'low_fuses'
p602
S'0xff'
p603
sS'lock_bits'
p604
S'0x0F'
p605
sS'file'
p606
S'ATmegaBOOT_168.hex'
p607
sS'path'
p608
S'bt'
p609
sS'unlock_bits'
p610
S'0x3F'
p611
ssS'upload'
p612
(dp613
S'speed'
p614
S'19200'
p615
sS'maximum_size'
p616
S'14336'
p617
sS'protocol'
p618
S'arduino'
p619
sS'disable_flushing'
p620
S'true'
p621
ssS'build'
p622
(dp623
S'core'
p624
S'arduino'
p625
sS'mcu'
p626
S'atmega168'
p627
sS'f_cpu'
p628
S'16000000L'
p629
sS'variant'
p630
S'eightanaloginputs'
p631
ssS'name'
p632
S'Arduino BT w/ ATmega168'
p633
sg103
S'/usr/share/arduino/hardware/arduino'
p634
saa(lp635
S'lilypad328'
p636
a(dp637
S'bootloader'
p638
(dp639
S'extended_fuses'
p640
S'0x05'
p641
sS'high_fuses'
p642
S'0xDA'
p643
sS'low_fuses'
p644
S'0xFF'
p645
sS'lock_bits'
p646
S'0x0F'
p647
sS'file'
p648
S'ATmegaBOOT_168_atmega328_pro_8MHz.hex'
p649
sS'path'
p650
S'atmega'
p651
sS'unlock_bits'
p652
S'0x3F'
p653
ssS'upload'
p654
(dp655
S'speed'
p656
S'57600'
p657
sS'maximum_size'
p658
S'30720'
p659
sS'protocol'
p660
S'arduino'
p661
ssS'build'
p662
(dp663
S'core'
p664
S'arduino'
p665
sS'mcu'
p666
S'atmega328p'
p667
sS'f_cpu'
p668
S'8000000L'
p669
sS'variant'
p670
S'standard'
p671
ssS'name'
p672
S'LilyPad Arduino w/ ATmega328'
p673
sg103
S'/usr/share/arduino/hardware/arduino'
p674
saa(lp675
S'lilypad'
p676
a(dp677
S'bootloader'
p678
(dp679
S'extended_fuses'
p680
S'0x00'
p681
sS'high_fuses'
p682
S'0xdd'
p683
sS'low_fuses'
p684
S'0xe2'
p685
sS'lock_bits'
p686
S'0x0F'
p687
sS'file'
p688
S'LilyPadBOOT_168.hex'
p689
sS'path'
p690
S'lilypad'
p691
sS'unlock_bits'
p692
S'0x3F'
p693
ssS'upload'
p694
(dp695
S'speed'
p696
S'19200'
p697
sS'maximum_size'
p698
S'14336'
p699
sS'protocol'
p700
S'arduino'
p701
ssS'build'
p702
(dp703
S'core'
p704
S'arduino'
p705
sS'mcu'
p706
S'atmega168'
p707
sS'f_cpu'
p708
S'8000000L'
p709
sS'variant'
p710
S'standard'
p711
ssS'name'
p712
S'LilyPad Arduino w/ ATmega168'
p713
sg103
S'/usr/share/arduino/hardware/arduino'
p714
saa(lp715
S'pro5v328'
p716
a(dp717
S'bootloader'
p718
(dp719
S'extended_fuses'
p720
S'0x05'
p721
sS'high_fuses'
p722
S'0xDA'
p723
sS'low_fuses'
p724
S'0xFF'
p725
sS'lock_bits'
p726
S'0x0F'
p727
sS'file'
p728
S'ATmegaBOOT_168_atmega328.hex'
p729
sS'path'
p730
S'atmega'
p731
sS'unlock_bits'
p732
S'0x3F'
p733
ssS'upload'
p734
(dp735
S'speed'
p736
S'57600'
p737
sS'maximum_size'
p738
S'30720'
p739
sS'protocol'
p740
S'arduino'
p741
ssS'build'
p742
(dp743
S'core'
p744
S'arduino'
p745
sS'mcu'
p746
S'atmega328p'
p747
sS'f_cpu'
p748
S'16000000L'
p749
sS'variant'
p750
S'standard'
p751
ssS'name'
p752
S'Arduino Pro or Pro Mini (5V, 16 MHz) w/ ATmega328'
p753
sg103
S'/usr/share/arduino/hardware/arduino'
p754
saa(lp755
S'pro5v'
p756
a(dp757
S'bootloader'
p758
(dp759
S'extended_fuses'
p760
S'0x00'
p761
sS'high_fuses'
p762
S'0xdd'
p763
sS'low_fuses'
p764
S'0xff'
p765
sS'lock_bits'
p766
S'0x0F'
p767
sS'file'
p768
S'ATmegaBOOT_168_diecimila.hex'
p769
sS'path'
p770
S'atmega'
p771
sS'unlock_bits'
p772
S'0x3F'
p773
ssS'upload'
p774
(dp775
S'speed'
p776
S'19200'
p777
sS'maximum_size'
p778
S'14336'
p779
sS'protocol'
p780
S'arduino'
p781
ssS'build'
p782
(dp783
S'core'
p784
S'arduino'
p785
sS'mcu'
p786
S'atmega168'
p787
sS'f_cpu'
p788
S'16000000L'
p789
sS'variant'
p790
S'standard'
p791
ssS'name'
p792
S'Arduino Pro or Pro Mini (5V, 16 MHz) w/ ATmega168'
p793
sg103
S'/usr/share/arduino/hardware/arduino'
p794
saa(lp795
S'pro328'
p796
a(dp797
S'bootloader'
p798
(dp799
S'extended_fuses'
p800
S'0x05'
p801
sS'high_fuses'
p802
S'0xDA'
p803
sS'low_fuses'
p804
S'0xFF'
p805
sS'lock_bits'
p806
S'0x0F'
p807
sS'file'
p808
S'ATmegaBOOT_168_atmega328_pro_8MHz.hex'
p809
sS'path'
p810
S'atmega'
p811
sS'unlock_bits'
p812
S'0x3F'
p813
ssS'upload'
p814
(dp815
S'speed'
p816
S'57600'
p817
sS'maximum_size'
p818
S'30720'
p819
sS'protocol'
p820
S'arduino'
p821
ssS'build'
p822
(dp823
S'core'
p824
S'arduino'
p825
sS'mcu'
p826
S'atmega328p'
p827
sS'f_cpu'
p828
S'8000000L'
p829
sS'variant'
p830
S'standard'
p831
ssS'name'
p832
S'Arduino Pro or Pro Mini (3.3V, 8 MHz) w/ ATmega328'
p833
sg103
S'/usr/share/arduino/hardware/arduino'
p834
saa(lp835
S'pro'
p836
a(dp837
S'bootloader'
p838
(dp839
S'extended_fuses'
p840
S'0x00'
p841
sS'high_fuses'
p842
S'0xdd'
p843
sS'low_fuses'
p844
S'0xc6'
p845
sS'lock_bits'
p846
S'0x0F'
p847
sS'file'
p848
S'ATmegaBOOT_168_pro_8MHz.hex'
p849
sS'path'
p850
S'atmega'
p851
sS'unlock_bits'
p852
S'0x3F'
p853
ssS'upload'
p854
(dp855
S'speed'
p856
S'19200'
p857
sS'maximum_size'
p858
S'14336'
p859
sS'protocol'
p860
S'arduino'
p861
ssS'build'
p862
(dp863
S'core'
p864
S'arduino'
p865
sS'mcu'
p866
S'atmega168'
p867
sS'f_cpu'
p868
S'8000000L'
p869
sS'variant'
p870
S'standard'
p871
ssS'name'
p872
S'Arduino Pro or Pro Mini (3.3V, 8 MHz) w/ ATmega168'
p873
sg103
S'/usr/share/arduino/hardware/arduino'
p874
saa(lp875
S'atmega168'
p876
a(dp877
S'bootloader'
p878
(dp879
S'extended_fuses'
p880
S'0x00'
p881
sS'high_fuses'
p882
S'0xdd'
p883
sS'low_fuses'
p884
S'0xff'
p885
sS'lock_bits'
p886
S'0x0F'
p887
sS'file'
p888
S'ATmegaBOOT_168_ng.hex'
p889
sS'path'
p890
S'atmega'
p891
sS'unlock_bits'
p892
S'0x3F'
p893
ssS'upload'
p894
(dp895
S'speed'
p896
S'19200'
p897
sS'maximum_size'
p898
S'14336'
p899
sS'protocol'
p900
S'arduino'
p901
ssS'build'
p902
(dp903
S'core'
p904
S'arduino'
p905
sS'mcu'
p906
S'atmega168'
p907
sS'f_cpu'
p908
S'16000000L'
p909
sS'variant'
p910
S'standard'
p911
ssS'name'
p912
S'Arduino NG or older w/ ATmega168'
p913
sg103
S'/usr/share/arduino/hardware/arduino'
p914
saa(lp915
S'atmega8'
p916
a(dp917
S'bootloader'
p918
(dp919
S'high_fuses'
p920
S'0xca'
p921
sS'low_fuses'
p922
S'0xdf'
p923
sS'lock_bits'
p924
S'0x0F'
p925
sS'file'
p926
S'ATmegaBOOT.hex'
p927
sS'path'
p928
S'atmega8'
p929
sS'unlock_bits'
p930
S'0x3F'
p931
ssS'upload'
p932
(dp933
S'speed'
p934
S'19200'
p935
sS'maximum_size'
p936
S'7168'
p937
sS'protocol'
p938
S'arduino'
p939
ssS'build'
p940
(dp941
S'core'
p942
S'arduino'
p943
sS'mcu'
p944
S'atmega8'
p945
sS'f_cpu'
p946
S'16000000L'
p947
sS'variant'
p948
S'standard'
p949
ssS'name'
p950
S'Arduino NG or older w/ ATmega8'
p951
sg103
S'/usr/share/arduino/hardware/arduino'
p952
saatp953
Rp954
(dp955
S'default'
p956
S'uno'
p957
sbtp958
a(S'used_libs'
p959
(lp960
S'/usr/share/arduino/libraries/Servo'
p961
aS'/usr/share/arduino/hardware/arduino/cores/arduino'
p962
atp963
a(S'make'
p964
S'/usr/bin/make'
p965
tp966
a(S'arduino_libraries_dir'
p967
S'/usr/share/arduino/libraries'
p968
tp969
a(S'cc'
p970
S'/usr/bin/avr-gcc'
p971
tp972
a(S'cflags'
p973
g2
(g3
g4
(lp974
tp975
Rp976
tp977
a(S'cxxflags'
p978
g2
(g3
g4
(lp979
S'-fno-exceptions'
p980
atp981
Rp982
tp983
a(S'arduino_variants_dir'
p984
S'/usr/share/arduino/hardware/arduino/variants'
p985
tp986
a(S'stty'
p987
S'/bin/stty'
p988
tp989
a(S'version.txt'
p990
S'/usr/share/arduino/lib/version.txt'
p991
tp992
a(S'arduino_core_dir'
p993
g962
tp994
a(S'boards.txt'
p995
(lp996
S'/usr/share/arduino/hardware/arduino/boards.txt'
p997
atp998
a(S'avrdude.conf'
p999
S'/usr/share/arduino/hardware/tools/avrdude.conf'
p1000
tp1001
a(g39
g2
(g3
g4
(lp1002
S'.build/atmega328/src/dependencies.d'
p1003
aS'.build/atmega328/arduino/dependencies.d'
p1004
aS'.build/atmega328/Servo/dependencies.d'
p1005
atp1006
Rp1007
tp1008
a.